target datalayout = "e-m:e-p270:32:32-p271:32:32-p272:64:64-i64:64-i128:128-f80:128-n8:16:32:64-S128"
target triple = "x86_64-pc-linux-gnu"

%struct.TIFFDirEntry = type { i16, i16, i32, i32 }
%"class.OpenImageIO::v3_1_0::span.20" = type { ptr, i64 }

@_ZZN11OpenImageIO6v3_1_014tiff_data_sizeE12TIFFDataTypeE5sizes = internal global [14 x i64] [i64 0, i64 1, i64 1, i64 2, i64 4, i64 8, i64 1, i64 1, i64 2, i64 4, i64 8, i64 4, i64 8, i64 4], align 16

; Function Attrs: alwaysinline mustprogress nounwind uwtable
define linkonce_odr hidden noundef i32 @_ZN11OpenImageIO6v3_1_07bitcastIi12TIFFDataTypeEET_RKT0_(ptr noundef nonnull align 4 dereferenceable(4) %0) #10 comdat {
  %2 = alloca ptr, align 8
  %3 = alloca i32, align 4
  store ptr %0, ptr %2, align 8, !tbaa !67
  call void @llvm.lifetime.start.p0(i64 4, ptr %3) #3
  %4 = load ptr, ptr %2, align 8, !tbaa !67
  call void @llvm.memcpy.p0.p0.i64(ptr align 1 %3, ptr align 4 %4, i64 4, i1 false)
  %5 = load i32, ptr %3, align 4, !tbaa !32
  call void @llvm.lifetime.end.p0(i64 4, ptr %3) #3
  ret i32 %5
}

; Function Attrs: mustprogress nounwind uwtable
define noundef i64 @_ZN11OpenImageIO6v3_1_014tiff_data_sizeE12TIFFDataType(i32 noundef %0) #7 {
  %2 = alloca i64, align 8
  %3 = alloca i32, align 4
  %4 = alloca i32, align 4
  %5 = alloca i32, align 4
  %6 = alloca i32, align 4
  store i32 %0, ptr %3, align 4, !tbaa !66
  call void @llvm.lifetime.start.p0(i64 4, ptr %4) #3
  store i32 14, ptr %4, align 4, !tbaa !32
  call void @llvm.lifetime.start.p0(i64 4, ptr %5) #3
  %7 = call noundef i32 @_ZN11OpenImageIO6v3_1_07bitcastIi12TIFFDataTypeEET_RKT0_(ptr noundef nonnull align 4 dereferenceable(4) %3) #3
  store i32 %7, ptr %5, align 4, !tbaa !32
  %8 = load i32, ptr %5, align 4, !tbaa !32
  %9 = icmp slt i32 %8, 0
  br i1 %9, label %13, label %10

10:                                               ; preds = %1
  %11 = load i32, ptr %5, align 4, !tbaa !32
  %12 = icmp sge i32 %11, 14
  br i1 %12, label %13, label %14

13:                                               ; preds = %10, %1
  store i64 -1, ptr %2, align 8
  store i32 1, ptr %6, align 4
  br label %19

14:                                               ; preds = %10
  %15 = load i32, ptr %5, align 4, !tbaa !32
  %16 = sext i32 %15 to i64
  %17 = getelementptr inbounds [14 x i64], ptr @_ZZN11OpenImageIO6v3_1_014tiff_data_sizeE12TIFFDataTypeE5sizes, i64 0, i64 %16
  %18 = load i64, ptr %17, align 8, !tbaa !13
  store i64 %18, ptr %2, align 8
  store i32 1, ptr %6, align 4
  br label %19

19:                                               ; preds = %14, %13
  call void @llvm.lifetime.end.p0(i64 4, ptr %5) #3
  call void @llvm.lifetime.end.p0(i64 4, ptr %4) #3
  %20 = load i64, ptr %2, align 8
  ret i64 %20
}

; Function Attrs: mustprogress nounwind uwtable
define linkonce_odr hidden noundef ptr @_ZNK11OpenImageIO6v3_1_04spanIKhLm18446744073709551615EE4dataEv(ptr noundef nonnull align 8 dereferenceable(16) %0) #7 comdat align 2 {
  %2 = alloca ptr, align 8
  store ptr %0, ptr %2, align 8, !tbaa !91
  %3 = load ptr, ptr %2, align 8
  %4 = getelementptr inbounds nuw %"class.OpenImageIO::v3_1_0::span.20", ptr %3, i32 0, i32 0
  %5 = load ptr, ptr %4, align 8, !tbaa !93
  ret ptr %5
}

; Function Attrs: mustprogress nounwind uwtable
define linkonce_odr hidden void @_ZN11OpenImageIO6v3_1_04spanIKhLm18446744073709551615EEC2Ev(ptr noundef nonnull align 8 dereferenceable(16) %0) unnamed_addr #7 comdat align 2 {
  %2 = alloca ptr, align 8
  store ptr %0, ptr %2, align 8, !tbaa !91
  %3 = load ptr, ptr %2, align 8
  %4 = getelementptr inbounds nuw %"class.OpenImageIO::v3_1_0::span.20", ptr %3, i32 0, i32 0
  store ptr null, ptr %4, align 8, !tbaa !93
  %5 = getelementptr inbounds nuw %"class.OpenImageIO::v3_1_0::span.20", ptr %3, i32 0, i32 1
  store i64 0, ptr %5, align 8, !tbaa !95
  ret void
}

; Function Attrs: mustprogress nounwind uwtable
define linkonce_odr hidden noundef i64 @_ZNK11OpenImageIO6v3_1_04spanIKhLm18446744073709551615EE4sizeEv(ptr noundef nonnull align 8 dereferenceable(16) %0) #7 comdat align 2 {
  %2 = alloca ptr, align 8
  store ptr %0, ptr %2, align 8, !tbaa !91
  %3 = load ptr, ptr %2, align 8
  %4 = getelementptr inbounds nuw %"class.OpenImageIO::v3_1_0::span.20", ptr %3, i32 0, i32 1
  %5 = load i64, ptr %4, align 8, !tbaa !95
  ret i64 %5
}

; Function Attrs: mustprogress nounwind uwtable
define linkonce_odr hidden void @_ZN11OpenImageIO6v3_1_04spanIKhLm18446744073709551615EEC2EPS2_m(ptr noundef nonnull align 8 dereferenceable(16) %0, ptr noundef %1, i64 noundef %2) unnamed_addr #7 comdat align 2 {
  %4 = alloca ptr, align 8
  %5 = alloca ptr, align 8
  %6 = alloca i64, align 8
  store ptr %0, ptr %4, align 8, !tbaa !91
  store ptr %1, ptr %5, align 8, !tbaa !64
  store i64 %2, ptr %6, align 8, !tbaa !13
  %7 = load ptr, ptr %4, align 8
  %8 = getelementptr inbounds nuw %"class.OpenImageIO::v3_1_0::span.20", ptr %7, i32 0, i32 0
  %9 = load ptr, ptr %5, align 8, !tbaa !64
  store ptr %9, ptr %8, align 8, !tbaa !93
  %10 = getelementptr inbounds nuw %"class.OpenImageIO::v3_1_0::span.20", ptr %7, i32 0, i32 1
  %11 = load i64, ptr %6, align 8, !tbaa !13
  store i64 %11, ptr %10, align 8, !tbaa !95
  ret void
}

; Function Attrs: mustprogress nounwind uwtable
define noundef i64 @_ZN11OpenImageIO6v3_1_014tiff_data_sizeERK12TIFFDirEntry(ptr noundef nonnull align 4 dereferenceable(12) %0) #7 {
  %2 = alloca ptr, align 8
  store ptr %0, ptr %2, align 8, !tbaa !68
  %3 = load ptr, ptr %2, align 8, !tbaa !68
  %4 = getelementptr inbounds nuw %struct.TIFFDirEntry, ptr %3, i32 0, i32 1
  %5 = load i16, ptr %4, align 2, !tbaa !70
  %6 = zext i16 %5 to i32
  %7 = call noundef i64 @_ZN11OpenImageIO6v3_1_014tiff_data_sizeE12TIFFDataType(i32 noundef %6)
  %8 = load ptr, ptr %2, align 8, !tbaa !68
  %9 = getelementptr inbounds nuw %struct.TIFFDirEntry, ptr %8, i32 0, i32 2
  %10 = load i32, ptr %9, align 4, !tbaa !73
  %11 = zext i32 %10 to i64
  %12 = mul i64 %7, %11
  ret i64 %12
}

; Function Attrs: mustprogress nounwind uwtable
define { ptr, i64 } @_ZN11OpenImageIO6v3_1_013tiff_dir_dataERK12TIFFDirEntryNS0_4spanIKhLm18446744073709551615EEE(ptr noundef nonnull align 4 dereferenceable(12) %0, ptr %1, i64 %2) #7 {
  %4 = alloca %"class.OpenImageIO::v3_1_0::span.20", align 8
  %5 = alloca %"class.OpenImageIO::v3_1_0::span.20", align 8
  %6 = alloca ptr, align 8
  %7 = alloca i64, align 8
  %8 = alloca i32, align 4
  %9 = alloca i64, align 8
  %10 = getelementptr inbounds nuw { ptr, i64 }, ptr %5, i32 0, i32 0
  store ptr %1, ptr %10, align 8
  %11 = getelementptr inbounds nuw { ptr, i64 }, ptr %5, i32 0, i32 1
  store i64 %2, ptr %11, align 8
  store ptr %0, ptr %6, align 8, !tbaa !68
  call void @llvm.lifetime.start.p0(i64 8, ptr %7) #3
  %12 = load ptr, ptr %6, align 8, !tbaa !68
  %13 = call noundef i64 @_ZN11OpenImageIO6v3_1_014tiff_data_sizeERK12TIFFDirEntry(ptr noundef nonnull align 4 dereferenceable(12) %12)
  store i64 %13, ptr %7, align 8, !tbaa !13
  %14 = load i64, ptr %7, align 8, !tbaa !13
  %15 = icmp ule i64 %14, 4
  br i1 %15, label %16, label %20

16:                                               ; preds = %3
  %17 = load ptr, ptr %6, align 8, !tbaa !68
  %18 = getelementptr inbounds nuw %struct.TIFFDirEntry, ptr %17, i32 0, i32 3
  %19 = load i64, ptr %7, align 8, !tbaa !13
  call void @_ZN11OpenImageIO6v3_1_04spanIKhLm18446744073709551615EEC2EPS2_m(ptr noundef nonnull align 8 dereferenceable(16) %4, ptr noundef %18, i64 noundef %19) #3
  store i32 1, ptr %8, align 4
  br label %37

20:                                               ; preds = %3
  call void @llvm.lifetime.start.p0(i64 8, ptr %9) #3
  %21 = load ptr, ptr %6, align 8, !tbaa !68
  %22 = getelementptr inbounds nuw %struct.TIFFDirEntry, ptr %21, i32 0, i32 3
  %23 = load i32, ptr %22, align 4, !tbaa !90
  %24 = zext i32 %23 to i64
  store i64 %24, ptr %9, align 8, !tbaa !13
  %25 = load i64, ptr %9, align 8, !tbaa !13
  %26 = load i64, ptr %7, align 8, !tbaa !13
  %27 = add i64 %25, %26
  %28 = call noundef i64 @_ZNK11OpenImageIO6v3_1_04spanIKhLm18446744073709551615EE4sizeEv(ptr noundef nonnull align 8 dereferenceable(16) %5) #3
  %29 = icmp ugt i64 %27, %28
  br i1 %29, label %30, label %31

30:                                               ; preds = %20
  call void @llvm.memset.p0.i64(ptr align 8 %4, i8 0, i64 16, i1 false)
  call void @_ZN11OpenImageIO6v3_1_04spanIKhLm18446744073709551615EEC2Ev(ptr noundef nonnull align 8 dereferenceable(16) %4) #3
  store i32 1, ptr %8, align 4
  br label %36

31:                                               ; preds = %20
  %32 = call noundef ptr @_ZNK11OpenImageIO6v3_1_04spanIKhLm18446744073709551615EE4dataEv(ptr noundef nonnull align 8 dereferenceable(16) %5) #3
  %33 = load i64, ptr %9, align 8, !tbaa !13
  %34 = getelementptr inbounds nuw i8, ptr %32, i64 %33
  %35 = load i64, ptr %7, align 8, !tbaa !13
  call void @_ZN11OpenImageIO6v3_1_04spanIKhLm18446744073709551615EEC2EPS2_m(ptr noundef nonnull align 8 dereferenceable(16) %4, ptr noundef %34, i64 noundef %35) #3
  store i32 1, ptr %8, align 4
  br label %36

36:                                               ; preds = %31, %30
  call void @llvm.lifetime.end.p0(i64 8, ptr %9) #3
  br label %37

37:                                               ; preds = %36, %16
  call void @llvm.lifetime.end.p0(i64 8, ptr %7) #3
  %38 = load { ptr, i64 }, ptr %4, align 8
  ret { ptr, i64 } %38
}