; Function Attrs: mustprogress nofree norecurse nosync nounwind willreturn memory(argmem: read) uwtable
define { ptr, i64 } @_ZN11OpenImageIO6v3_1_013tiff_dir_dataERK12TIFFDirEntryNS0_4spanIKhLm18446744073709551615EEE(ptr noundef nonnull align 4 dereferenceable(12) %0, ptr %1, i64 %2) local_unnamed_addr #12 {
  %4 = getelementptr inbounds nuw i8, ptr %0, i64 2
  %5 = load i16, ptr %4, align 2, !tbaa !86
  %or.cond.i.i = icmp ugt i16 %5, 13
  br i1 %or.cond.i.i, label %_ZN11OpenImageIO6v3_1_014tiff_data_sizeERK12TIFFDirEntry.exit, label %6

6:                                                ; preds = %3
  %7 = zext nneg i16 %5 to i64
  %8 = getelementptr inbounds nuw [14 x i64], ptr @_ZZN11OpenImageIO6v3_1_014tiff_data_sizeE12TIFFDataTypeE5sizes, i64 0, i64 %7
  %9 = load i64, ptr %8, align 8, !tbaa !52
  br label %_ZN11OpenImageIO6v3_1_014tiff_data_sizeERK12TIFFDirEntry.exit

_ZN11OpenImageIO6v3_1_014tiff_data_sizeERK12TIFFDirEntry.exit: ; preds = %3, %6
  %.0.i.i = phi i64 [ %9, %6 ], [ -1, %3 ]
  %10 = getelementptr inbounds nuw i8, ptr %0, i64 4
  %11 = load i32, ptr %10, align 4, !tbaa !88
  %12 = zext i32 %11 to i64
  %13 = mul i64 %.0.i.i, %12
  %14 = icmp ult i64 %13, 5
  %15 = getelementptr inbounds nuw i8, ptr %0, i64 8
  br i1 %14, label %22, label %16

16:                                               ; preds = %_ZN11OpenImageIO6v3_1_014tiff_data_sizeERK12TIFFDirEntry.exit
  %17 = load i32, ptr %15, align 4, !tbaa !89
  %18 = zext i32 %17 to i64
  %19 = add i64 %13, %18
  %20 = icmp ugt i64 %19, %2
  %21 = getelementptr inbounds nuw i8, ptr %1, i64 %18
  %spec.select = select i1 %20, i64 0, i64 %13
  %spec.select11 = select i1 %20, ptr null, ptr %21
  br label %22

22:                                               ; preds = %_ZN11OpenImageIO6v3_1_014tiff_data_sizeERK12TIFFDirEntry.exit, %16
  %.sroa.5.0 = phi i64 [ %spec.select, %16 ], [ %13, %_ZN11OpenImageIO6v3_1_014tiff_data_sizeERK12TIFFDirEntry.exit ]
  %.sroa.08.0 = phi ptr [ %spec.select11, %16 ], [ %15, %_ZN11OpenImageIO6v3_1_014tiff_data_sizeERK12TIFFDirEntry.exit ]
  %.fca.0.insert = insertvalue { ptr, i64 } poison, ptr %.sroa.08.0, 0
  %.fca.1.insert = insertvalue { ptr, i64 } %.fca.0.insert, i64 %.sroa.5.0, 1
  ret { ptr, i64 } %.fca.1.insert
}